target datalayout = "e-m:e-p270:32:32-p271:32:32-p272:64:64-i64:64-i128:128-f80:128-n8:16:32:64-S128"
target triple = "x86_64-unknown-linux-gnu"

%"class.icu_75::MeasureFormatCacheData" = type { %"class.icu_75::SharedObject", [3 x i32], [3 x ptr], ptr, ptr }
%"class.icu_75::SharedObject" = type { %"class.icu_75::UObject", i32, %"struct.std::atomic", ptr }
%"class.icu_75::UObject" = type { ptr }
%"struct.std::atomic" = type { %"struct.std::__atomic_base" }
%"struct.std::__atomic_base" = type { i32 }

@_ZTVN6icu_7522MeasureFormatCacheDataE = unnamed_addr constant { [5 x ptr] } { [5 x ptr] [ptr null, ptr @_ZTIN6icu_7522MeasureFormatCacheDataE, ptr @_ZN6icu_7522MeasureFormatCacheDataD1Ev, ptr @_ZN6icu_7522MeasureFormatCacheDataD0Ev, ptr @_ZNK6icu_757UObject17getDynamicClassIDEv] }, align 8
@_ZTVN6icu_7512SharedObjectE = external unnamed_addr constant { [5 x ptr] }, align 8
@_ZTVN6icu_757UObjectE = external unnamed_addr constant { [5 x ptr] }, align 8

; Function Attrs: mustprogress nounwind uwtable
define linkonce_odr void @_ZNSt13__atomic_baseIiEC2Ei(ptr noundef nonnull align 4 dereferenceable(4) %this, i32 noundef %__i) unnamed_addr #0 comdat align 2 {
entry:
  %this.addr = alloca ptr, align 8
  %__i.addr = alloca i32, align 4
  store ptr %this, ptr %this.addr, align 8
  store i32 %__i, ptr %__i.addr, align 4
  %this1 = load ptr, ptr %this.addr, align 8
  %_M_i = getelementptr inbounds %"struct.std::__atomic_base", ptr %this1, i32 0, i32 0
  %0 = load i32, ptr %__i.addr, align 4
  store i32 %0, ptr %_M_i, align 4
  ret void
}

; Function Attrs: mustprogress nounwind uwtable
define linkonce_odr void @_ZNSt6atomicIiEC2Ei(ptr noundef nonnull align 4 dereferenceable(4) %this, i32 noundef %__i) unnamed_addr #0 comdat align 2 {
entry:
  %this.addr = alloca ptr, align 8
  %__i.addr = alloca i32, align 4
  store ptr %this, ptr %this.addr, align 8
  store i32 %__i, ptr %__i.addr, align 4
  %this1 = load ptr, ptr %this.addr, align 8
  %0 = load i32, ptr %__i.addr, align 4
  call void @_ZNSt13__atomic_baseIiEC2Ei(ptr noundef nonnull align 4 dereferenceable(4) %this1, i32 noundef %0) #12
  ret void
}

; Function Attrs: mustprogress nounwind uwtable
define linkonce_odr void @_ZN6icu_757UObjectC2Ev(ptr noundef nonnull align 8 dereferenceable(8) %this) unnamed_addr #0 comdat align 2 {
entry:
  %this.addr = alloca ptr, align 8
  store ptr %this, ptr %this.addr, align 8
  %this1 = load ptr, ptr %this.addr, align 8
  store ptr getelementptr inbounds ({ [5 x ptr] }, ptr @_ZTVN6icu_757UObjectE, i32 0, i32 0, i32 2), ptr %this1, align 8
  ret void
}

; Function Attrs: mustprogress nounwind uwtable
define linkonce_odr void @_ZN6icu_7512SharedObjectC2Ev(ptr noundef nonnull align 8 dereferenceable(24) %this) unnamed_addr #0 comdat align 2 {
entry:
  %this.addr = alloca ptr, align 8
  store ptr %this, ptr %this.addr, align 8
  %this1 = load ptr, ptr %this.addr, align 8
  call void @_ZN6icu_757UObjectC2Ev(ptr noundef nonnull align 8 dereferenceable(8) %this1) #12
  store ptr getelementptr inbounds ({ [5 x ptr] }, ptr @_ZTVN6icu_7512SharedObjectE, i32 0, i32 0, i32 2), ptr %this1, align 8
  %softRefCount = getelementptr inbounds %"class.icu_75::SharedObject", ptr %this1, i32 0, i32 1
  store i32 0, ptr %softRefCount, align 8
  %hardRefCount = getelementptr inbounds %"class.icu_75::SharedObject", ptr %this1, i32 0, i32 2
  call void @_ZNSt6atomicIiEC2Ei(ptr noundef nonnull align 4 dereferenceable(4) %hardRefCount, i32 noundef 0) #12
  %cachePtr = getelementptr inbounds %"class.icu_75::SharedObject", ptr %this1, i32 0, i32 3
  store ptr null, ptr %cachePtr, align 8
  ret void
}

; Function Attrs: mustprogress uwtable
define void @_ZN6icu_7522MeasureFormatCacheDataC2Ev(ptr noundef nonnull align 8 dereferenceable(80) %this) unnamed_addr #1 align 2 {
entry:
  %this.addr = alloca ptr, align 8
  %i = alloca i32, align 4
  store ptr %this, ptr %this.addr, align 8
  %this1 = load ptr, ptr %this.addr, align 8
  call void @_ZN6icu_7512SharedObjectC2Ev(ptr noundef nonnull align 8 dereferenceable(24) %this1)
  store ptr getelementptr inbounds ({ [5 x ptr] }, ptr @_ZTVN6icu_7522MeasureFormatCacheDataE, i32 0, i32 0, i32 2), ptr %this1, align 8
  %integerFormat = getelementptr inbounds %"class.icu_75::MeasureFormatCacheData", ptr %this1, i32 0, i32 3
  store ptr null, ptr %integerFormat, align 8
  %numericDateFormatters = getelementptr inbounds %"class.icu_75::MeasureFormatCacheData", ptr %this1, i32 0, i32 4
  store ptr null, ptr %numericDateFormatters, align 8
  store i32 0, ptr %i, align 4
  br label %for.cond

for.cond:                                         ; preds = %for.inc, %entry
  %0 = load i32, ptr %i, align 4
  %cmp = icmp slt i32 %0, 3
  br i1 %cmp, label %for.body, label %for.end

for.body:                                         ; preds = %for.cond
  %widthFallback = getelementptr inbounds %"class.icu_75::MeasureFormatCacheData", ptr %this1, i32 0, i32 1
  %1 = load i32, ptr %i, align 4
  %idxprom = sext i32 %1 to i64
  %arrayidx = getelementptr inbounds [3 x i32], ptr %widthFallback, i64 0, i64 %idxprom
  store i32 4, ptr %arrayidx, align 4
  br label %for.inc

for.inc:                                          ; preds = %for.body
  %2 = load i32, ptr %i, align 4
  %inc = add nsw i32 %2, 1
  store i32 %inc, ptr %i, align 4
  br label %for.cond, !llvm.loop !4

for.end:                                          ; preds = %for.cond
  %currencyFormats = getelementptr inbounds %"class.icu_75::MeasureFormatCacheData", ptr %this1, i32 0, i32 2
  %arraydecay = getelementptr inbounds [3 x ptr], ptr %currencyFormats, i64 0, i64 0
  call void @llvm.memset.p0.i64(ptr align 8 %arraydecay, i8 0, i64 24, i1 false)
  ret void
}