; Function Attrs: mustprogress nofree norecurse nosync nounwind memory(argmem: write) uwtable
define void @_ZN6icu_7522MeasureFormatCacheDataC2Ev(ptr nocapture noundef nonnull writeonly align 8 dereferenceable(80) %this) unnamed_addr #7 align 2 {
entry:
  %softRefCount.i = getelementptr inbounds i8, ptr %this, i64 8
  tail call void @llvm.memset.p0.i64(ptr noundef nonnull align 8 dereferenceable(16) %softRefCount.i, i8 0, i64 16, i1 false)
  store ptr getelementptr inbounds ({ [5 x ptr] }, ptr @_ZTVN6icu_7522MeasureFormatCacheDataE, i64 0, i32 0, i64 2), ptr %this, align 8
  %integerFormat = getelementptr inbounds i8, ptr %this, i64 64
  %widthFallback = getelementptr inbounds i8, ptr %this, i64 24
  tail call void @llvm.memset.p0.i64(ptr noundef nonnull align 8 dereferenceable(16) %integerFormat, i8 0, i64 16, i1 false)
  br label %for.body

for.body:                                         ; preds = %entry, %for.body
  %indvars.iv = phi i64 [ 0, %entry ], [ %indvars.iv.next, %for.body ]
  %arrayidx = getelementptr inbounds [3 x i32], ptr %widthFallback, i64 0, i64 %indvars.iv
  store i32 4, ptr %arrayidx, align 4
  %indvars.iv.next = add nuw nsw i64 %indvars.iv, 1
  %exitcond.not = icmp eq i64 %indvars.iv.next, 3
  br i1 %exitcond.not, label %for.end, label %for.body, !llvm.loop !4

for.end:                                          ; preds = %for.body
  %currencyFormats = getelementptr inbounds i8, ptr %this, i64 40
  tail call void @llvm.memset.p0.i64(ptr noundef nonnull align 8 dereferenceable(24) %currencyFormats, i8 0, i64 24, i1 false)
  ret void
}